target datalayout = "e-m:e-p270:32:32-p271:32:32-p272:64:64-i64:64-i128:128-f80:128-n8:16:32:64-S128"
target triple = "x86_64-pc-linux-gnu"

%struct.config = type { %struct.cliConnInfo, %struct.timeval, ptr, i32, %struct.cliSSLconfig, i64, i64, i32, i32, i32, i32, i32, i32, i32, i32, i32, i32, i64, i32, i32, i32, i32, i32, i32, i32, i32, i32, i32, i32, i32, i32, ptr, ptr, i32, i32, i64, i32, i32, i64, i64, i32, i32, ptr, i32, i32, i32, i32, ptr, ptr, [128 x i8], ptr, i32, i32, i32, i32, i32, ptr, i32, i32, %struct.clusterManagerCommand, i32, i32, i32, i32, i32, i32, ptr, ptr, ptr, i32, i32 }
%struct.cliConnInfo = type { ptr, i32, i32, ptr, ptr }
%struct.timeval = type { i64, i64 }
%struct.cliSSLconfig = type { ptr, ptr, ptr, i32, ptr, ptr, ptr, ptr }
%struct.clusterManagerCommand = type { ptr, i32, ptr, ptr, i32, i32, ptr, ptr, ptr, i32, ptr, i32, i32, i32, float, ptr, ptr, ptr, i32 }
%struct.__va_list_tag = type { i32, i32, ptr, ptr }

@config = internal global %struct.config zeroinitializer, align 8
@.str.19 = private unnamed_addr constant [5 x i8] c"\1B[0m\00", align 1
@stdout = external global ptr, align 8
@.str.202 = private unnamed_addr constant [3 x i8] c"\1B[\00", align 1
@.str.203 = private unnamed_addr constant [6 x i8] c"29;1m\00", align 1
@.str.204 = private unnamed_addr constant [6 x i8] c"33;1m\00", align 1
@.str.205 = private unnamed_addr constant [6 x i8] c"31;1m\00", align 1
@.str.206 = private unnamed_addr constant [6 x i8] c"32;1m\00", align 1
@.str.207 = private unnamed_addr constant [3 x i8] c"0m\00", align 1

; Function Attrs: inlinehint nounwind uwtable
define available_externally i32 @vprintf(ptr noalias noundef %0, ptr noundef %1) #12 {
  %3 = alloca ptr, align 8
  %4 = alloca ptr, align 8
  store ptr %0, ptr %3, align 8, !tbaa !5
  store ptr %1, ptr %4, align 8, !tbaa !449
  %5 = load ptr, ptr @stdout, align 8, !tbaa !12
  %6 = load ptr, ptr %3, align 8, !tbaa !5
  %7 = load ptr, ptr %4, align 8, !tbaa !449
  %8 = call i32 @vfprintf(ptr noundef %5, ptr noundef %6, ptr noundef %7) #15
  ret i32 %8
}

; Function Attrs: nounwind uwtable
define internal void @clusterManagerLog(i32 noundef %0, ptr noundef %1, ...) #0 {
  %3 = alloca i32, align 4
  %4 = alloca ptr, align 8
  %5 = alloca i32, align 4
  %6 = alloca [1 x %struct.__va_list_tag], align 16
  store i32 %0, ptr %3, align 4, !tbaa !10
  store ptr %1, ptr %4, align 8, !tbaa !5
  call void @llvm.lifetime.start.p0(i64 4, ptr %5) #15
  %7 = load i32, ptr getelementptr inbounds nuw (%struct.clusterManagerCommand, ptr getelementptr inbounds nuw (%struct.config, ptr @config, i32 0, i32 59), i32 0, i32 4), align 8, !tbaa !136
  %8 = and i32 %7, 256
  store i32 %8, ptr %5, align 4, !tbaa !10
  %9 = load i32, ptr %5, align 4, !tbaa !10
  %10 = icmp ne i32 %9, 0
  br i1 %10, label %11, label %25

11:                                               ; preds = %2
  %12 = call i32 (ptr, ...) @printf(ptr noundef @.str.202)
  %13 = load i32, ptr %3, align 4, !tbaa !10
  switch i32 %13, label %22 [
    i32 1, label %14
    i32 2, label %16
    i32 3, label %18
    i32 4, label %20
  ]

14:                                               ; preds = %11
  %15 = call i32 (ptr, ...) @printf(ptr noundef @.str.203)
  br label %24

16:                                               ; preds = %11
  %17 = call i32 (ptr, ...) @printf(ptr noundef @.str.204)
  br label %24

18:                                               ; preds = %11
  %19 = call i32 (ptr, ...) @printf(ptr noundef @.str.205)
  br label %24

20:                                               ; preds = %11
  %21 = call i32 (ptr, ...) @printf(ptr noundef @.str.206)
  br label %24

22:                                               ; preds = %11
  %23 = call i32 (ptr, ...) @printf(ptr noundef @.str.207)
  br label %24

24:                                               ; preds = %22, %20, %18, %16, %14
  br label %25

25:                                               ; preds = %24, %2
  call void @llvm.lifetime.start.p0(i64 24, ptr %6) #15
  %26 = getelementptr inbounds [1 x %struct.__va_list_tag], ptr %6, i64 0, i64 0
  call void @llvm.va_start.p0(ptr %26)
  %27 = load ptr, ptr %4, align 8, !tbaa !5
  %28 = getelementptr inbounds [1 x %struct.__va_list_tag], ptr %6, i64 0, i64 0
  %29 = call i32 @vprintf(ptr noundef %27, ptr noundef %28) #15
  %30 = getelementptr inbounds [1 x %struct.__va_list_tag], ptr %6, i64 0, i64 0
  call void @llvm.va_end.p0(ptr %30)
  %31 = load i32, ptr %5, align 4, !tbaa !10
  %32 = icmp ne i32 %31, 0
  br i1 %32, label %33, label %35

33:                                               ; preds = %25
  %34 = call i32 (ptr, ...) @printf(ptr noundef @.str.19)
  br label %35

35:                                               ; preds = %33, %25
  call void @llvm.lifetime.end.p0(i64 24, ptr %6) #15
  call void @llvm.lifetime.end.p0(i64 4, ptr %5) #15
  ret void
}