; Function Attrs: nofree nounwind uwtable
define internal void @clusterManagerLog(i32 noundef range(i32 1, 5) %0, ptr noundef readonly captures(none) %1, ...) unnamed_addr #14 {
  %3 = alloca [1 x %struct.__va_list_tag], align 16
  %4 = load i32, ptr getelementptr inbounds nuw (i8, ptr @config, i64 560), align 8, !tbaa !115
  %5 = and i32 %4, 256
  %.not = icmp eq i32 %5, 0
  br i1 %.not, label %.critedge, label %switch.lookup

switch.lookup:                                    ; preds = %2
  %6 = tail call i32 (ptr, ...) @printf(ptr noundef nonnull dereferenceable(1) @.str.202)
  %switch.tableidx = add nsw i32 %0, -1
  %7 = sext i32 %switch.tableidx to i64
  %switch.gep = getelementptr inbounds [4 x ptr], ptr @switch.table.clusterManagerLog, i64 0, i64 %7
  %switch.load = load ptr, ptr %switch.gep, align 8
  %8 = tail call i32 (ptr, ...) @printf(ptr noundef nonnull dereferenceable(1) %switch.load)
  call void @llvm.lifetime.start.p0(i64 24, ptr nonnull %3) #33
  call void @llvm.va_start.p0(ptr nonnull %3)
  %9 = load ptr, ptr @stdout, align 8, !tbaa !5, !noalias !413
  %10 = call i32 @vfprintf(ptr noundef %9, ptr noundef %1, ptr noundef nonnull %3) #33
  call void @llvm.va_end.p0(ptr nonnull %3)
  %11 = call i32 (ptr, ...) @printf(ptr noundef nonnull dereferenceable(1) @str.14)
  br label %14

.critedge:                                        ; preds = %2
  call void @llvm.lifetime.start.p0(i64 24, ptr nonnull %3) #33
  call void @llvm.va_start.p0(ptr nonnull %3)
  %12 = load ptr, ptr @stdout, align 8, !tbaa !5, !noalias !416
  %13 = call i32 @vfprintf(ptr noundef %12, ptr noundef %1, ptr noundef nonnull %3) #33
  call void @llvm.va_end.p0(ptr nonnull %3)
  br label %14

14:                                               ; preds = %.critedge, %switch.lookup
  call void @llvm.lifetime.end.p0(i64 24, ptr nonnull %3) #33
  ret void
}